; Function Attrs: nounwind uwtable
define dso_local i32 @onig_match(ptr noundef %0, ptr noundef %1, ptr noundef %2, ptr noundef %3, ptr noundef %4, i32 noundef %5) local_unnamed_addr #4 {
  %7 = alloca %struct.OnigMatchParamStruct, align 8
  call void @llvm.lifetime.start.p0(i64 72, ptr nonnull %7) #30
  %8 = load i32, ptr @MatchStackLimit, align 4, !tbaa !24
  store i32 %8, ptr %7, align 8, !tbaa !4
  %9 = load i64, ptr @RetryLimitInMatch, align 8, !tbaa !39
  %10 = getelementptr inbounds nuw i8, ptr %7, i64 8
  store i64 %9, ptr %10, align 8, !tbaa !11
  %11 = load i64, ptr @RetryLimitInSearch, align 8, !tbaa !39
  %12 = getelementptr inbounds nuw i8, ptr %7, i64 16
  store i64 %11, ptr %12, align 8, !tbaa !12
  %13 = getelementptr inbounds nuw i8, ptr %7, i64 24
  store ptr null, ptr %13, align 8, !tbaa !15
  %14 = load ptr, ptr @DefaultProgressCallout, align 8, !tbaa !20
  %15 = getelementptr inbounds nuw i8, ptr %7, i64 32
  store ptr %14, ptr %15, align 8, !tbaa !13
  %16 = load ptr, ptr @DefaultRetractionCallout, align 8, !tbaa !20
  %17 = getelementptr inbounds nuw i8, ptr %7, i64 40
  store ptr %16, ptr %17, align 8, !tbaa !14
  %18 = getelementptr inbounds nuw i8, ptr %7, i64 48
  store i32 0, ptr %18, align 8, !tbaa !40
  %19 = getelementptr inbounds nuw i8, ptr %7, i64 56
  store ptr null, ptr %19, align 8, !tbaa !41
  %20 = getelementptr inbounds nuw i8, ptr %7, i64 64
  store i32 0, ptr %20, align 8, !tbaa !42
  %21 = call i32 @onig_match_with_param(ptr noundef %0, ptr noundef %1, ptr noundef %2, ptr noundef %3, ptr noundef %4, i32 noundef %5, ptr noundef nonnull %7)
  %22 = load ptr, ptr %19, align 8, !tbaa !41
  %.not.i = icmp eq ptr %22, null
  br i1 %.not.i, label %onig_free_match_param_content.exit, label %23

23:                                               ; preds = %6
  call void @free(ptr noundef nonnull %22) #30
  br label %onig_free_match_param_content.exit

onig_free_match_param_content.exit:               ; preds = %6, %23
  call void @llvm.lifetime.end.p0(i64 72, ptr nonnull %7) #30
  ret i32 %21
}